target datalayout = "e-m:e-p270:32:32-p271:32:32-p272:64:64-i64:64-i128:128-f80:128-n8:16:32:64-S128"
target triple = "x86_64-pc-linux-gnu"

@.str.4 = private unnamed_addr constant [5 x i8] c"%s%s\00", align 1
@.str.5 = private unnamed_addr constant [2 x i8] c"/\00", align 1
@.str.6 = private unnamed_addr constant [1 x i8] zeroinitializer, align 1

; Function Attrs: nounwind uwtable
define internal ptr @GENERIC_Title_Create(ptr noundef %0, i32 noundef %1) #0 {
  %3 = alloca ptr, align 8
  %4 = alloca ptr, align 8
  %5 = alloca i32, align 4
  %6 = alloca ptr, align 8
  %7 = alloca ptr, align 8
  %8 = alloca i64, align 8
  %9 = alloca i8, align 1
  %10 = alloca i32, align 4
  %11 = alloca ptr, align 8
  store ptr %0, ptr %4, align 8
  store i32 %1, ptr %5, align 4
  call void @llvm.lifetime.start.p0(i64 8, ptr %6) #3
  store ptr null, ptr %6, align 8
  call void @llvm.lifetime.start.p0(i64 8, ptr %7) #3
  store ptr null, ptr %7, align 8
  %12 = load ptr, ptr %4, align 8
  %13 = icmp ne ptr %12, null
  br i1 %13, label %14, label %51

14:                                               ; preds = %2
  call void @llvm.lifetime.start.p0(i64 8, ptr %8) #3
  %15 = load ptr, ptr %4, align 8
  %16 = call i64 @SDL_strlen_REAL(ptr noundef %15)
  store i64 %16, ptr %8, align 8
  call void @llvm.lifetime.start.p0(i64 1, ptr %9) #3
  %17 = load i64, ptr %8, align 8
  %18 = icmp ne i64 %17, 0
  br i1 %18, label %19, label %37

19:                                               ; preds = %14
  %20 = load ptr, ptr %4, align 8
  %21 = load i64, ptr %8, align 8
  %22 = sub i64 %21, 1
  %23 = getelementptr inbounds nuw i8, ptr %20, i64 %22
  %24 = load i8, ptr %23, align 1
  %25 = sext i8 %24 to i32
  %26 = icmp ne i32 %25, 47
  br i1 %26, label %27, label %35

27:                                               ; preds = %19
  %28 = load ptr, ptr %4, align 8
  %29 = load i64, ptr %8, align 8
  %30 = sub i64 %29, 1
  %31 = getelementptr inbounds nuw i8, ptr %28, i64 %30
  %32 = load i8, ptr %31, align 1
  %33 = sext i8 %32 to i32
  %34 = icmp ne i32 %33, 92
  br label %35

35:                                               ; preds = %27, %19
  %36 = phi i1 [ false, %19 ], [ %34, %27 ]
  br label %37

37:                                               ; preds = %35, %14
  %38 = phi i1 [ true, %14 ], [ %36, %35 ]
  %39 = zext i1 %38 to i8
  store i8 %39, ptr %9, align 1
  %40 = load ptr, ptr %4, align 8
  %41 = load i8, ptr %9, align 1, !range !3, !noundef !4
  %42 = trunc i8 %41 to i1
  %43 = select i1 %42, ptr @.str.5, ptr @.str.6
  %44 = call i32 (ptr, ptr, ...) @SDL_asprintf_REAL(ptr noundef %7, ptr noundef @.str.4, ptr noundef %40, ptr noundef %43)
  %45 = icmp eq i32 %44, -1
  br i1 %45, label %46, label %47

46:                                               ; preds = %37
  store ptr null, ptr %3, align 8
  store i32 1, ptr %10, align 4
  br label %48

47:                                               ; preds = %37
  store i32 0, ptr %10, align 4
  br label %48

48:                                               ; preds = %47, %46
  call void @llvm.lifetime.end.p0(i64 1, ptr %9) #3
  call void @llvm.lifetime.end.p0(i64 8, ptr %8) #3
  %49 = load i32, ptr %10, align 4
  switch i32 %49, label %74 [
    i32 0, label %50
  ]

50:                                               ; preds = %48
  br label %61

51:                                               ; preds = %2
  call void @llvm.lifetime.start.p0(i64 8, ptr %11) #3
  %52 = call ptr @SDL_GetBasePath_REAL()
  store ptr %52, ptr %11, align 8
  %53 = load ptr, ptr %11, align 8
  %54 = icmp ne ptr %53, null
  br i1 %54, label %55, label %58

55:                                               ; preds = %51
  %56 = load ptr, ptr %11, align 8
  %57 = call noalias ptr @SDL_strdup_REAL(ptr noundef %56)
  br label %59

58:                                               ; preds = %51
  br label %59

59:                                               ; preds = %58, %55
  %60 = phi ptr [ %57, %55 ], [ null, %58 ]
  store ptr %60, ptr %7, align 8
  call void @llvm.lifetime.end.p0(i64 8, ptr %11) #3
  br label %61

61:                                               ; preds = %59, %50
  %62 = load ptr, ptr %7, align 8
  %63 = icmp ne ptr %62, null
  br i1 %63, label %64, label %72

64:                                               ; preds = %61
  %65 = load ptr, ptr %7, align 8
  %66 = call ptr @SDL_OpenStorage_REAL(ptr noundef @GENERIC_title_iface, ptr noundef %65)
  store ptr %66, ptr %6, align 8
  %67 = load ptr, ptr %6, align 8
  %68 = icmp eq ptr %67, null
  br i1 %68, label %69, label %71

69:                                               ; preds = %64
  %70 = load ptr, ptr %7, align 8
  call void @SDL_free_REAL(ptr noundef %70)
  br label %71

71:                                               ; preds = %69, %64
  br label %72

72:                                               ; preds = %71, %61
  %73 = load ptr, ptr %6, align 8
  store ptr %73, ptr %3, align 8
  store i32 1, ptr %10, align 4
  br label %74

74:                                               ; preds = %72, %48
  call void @llvm.lifetime.end.p0(i64 8, ptr %7) #3
  call void @llvm.lifetime.end.p0(i64 8, ptr %6) #3
  %75 = load ptr, ptr %3, align 8
  ret ptr %75
}