; Function Attrs: nounwind uwtable
define internal ptr @GENERIC_Title_Create(ptr noundef %0, i32 %1) #0 {
  %3 = alloca ptr, align 8
  call void @llvm.lifetime.start.p0(i64 8, ptr nonnull %3) #4
  store ptr null, ptr %3, align 8
  %.not = icmp eq ptr %0, null
  br i1 %.not, label %15, label %4

4:                                                ; preds = %2
  %5 = tail call i64 @SDL_strlen_REAL(ptr noundef nonnull %0) #4
  %.not23 = icmp eq i64 %5, 0
  br i1 %.not23, label %12, label %6

6:                                                ; preds = %4
  %7 = getelementptr i8, ptr %0, i64 %5
  %8 = getelementptr i8, ptr %7, i64 -1
  %9 = load i8, ptr %8, align 1
  %.not24 = icmp eq i8 %9, 47
  br i1 %.not24, label %12, label %10

10:                                               ; preds = %6
  %.not25 = icmp eq i8 %9, 92
  %11 = select i1 %.not25, ptr @.str.6, ptr @.str.5
  br label %12

12:                                               ; preds = %6, %10, %4
  %13 = phi ptr [ @.str.5, %4 ], [ @.str.6, %6 ], [ %11, %10 ]
  %14 = call i32 (ptr, ptr, ...) @SDL_asprintf_REAL(ptr noundef nonnull %3, ptr noundef nonnull @.str.4, ptr noundef nonnull %0, ptr noundef nonnull %13) #4
  %.not26 = icmp eq i32 %14, -1
  br i1 %.not26, label %28, label %thread-pre-split

15:                                               ; preds = %2
  %16 = tail call ptr @SDL_GetBasePath_REAL() #4
  %.not22 = icmp eq ptr %16, null
  br i1 %.not22, label %19, label %17

17:                                               ; preds = %15
  %18 = tail call noalias ptr @SDL_strdup_REAL(ptr noundef nonnull %16) #4
  br label %19

19:                                               ; preds = %15, %17
  %20 = phi ptr [ %18, %17 ], [ null, %15 ]
  store ptr %20, ptr %3, align 8
  br label %21

thread-pre-split:                                 ; preds = %12
  %.pr = load ptr, ptr %3, align 8
  br label %21

21:                                               ; preds = %thread-pre-split, %19
  %22 = phi ptr [ %.pr, %thread-pre-split ], [ %20, %19 ]
  %.not27 = icmp eq ptr %22, null
  br i1 %.not27, label %28, label %23

23:                                               ; preds = %21
  %24 = call ptr @SDL_OpenStorage_REAL(ptr noundef nonnull @GENERIC_title_iface, ptr noundef nonnull %22) #4
  %25 = icmp eq ptr %24, null
  br i1 %25, label %26, label %28

26:                                               ; preds = %23
  %27 = load ptr, ptr %3, align 8
  call void @SDL_free_REAL(ptr noundef %27) #4
  br label %28

28:                                               ; preds = %21, %26, %23, %12
  %.1 = phi ptr [ null, %12 ], [ null, %26 ], [ %24, %23 ], [ null, %21 ]
  call void @llvm.lifetime.end.p0(i64 8, ptr nonnull %3) #4
  ret ptr %.1
}